; Function Attrs: nounwind uwtable
define dso_local i64 @pq_getmsgint64(ptr noundef captures(none) %0) local_unnamed_addr #0 {
  %2 = getelementptr inbounds nuw i8, ptr %0, i64 8
  %3 = load i32, ptr %2, align 8
  %4 = getelementptr inbounds nuw i8, ptr %0, i64 16
  %5 = load i32, ptr %4, align 8
  %6 = sub i32 %3, %5
  %7 = icmp slt i32 %6, 8
  br i1 %7, label %8, label %pq_copymsgbytes.exit

8:                                                ; preds = %1
  %9 = tail call zeroext i1 @errstart_cold(i32 noundef 21, ptr noundef null) #11
  tail call void @llvm.assume(i1 %9)
  %10 = tail call i32 @errcode(i32 noundef 16908800) #9
  %11 = tail call i32 (ptr, ...) @errmsg(ptr noundef nonnull @.str.3) #9
  tail call void @errfinish(ptr noundef nonnull @.str.1, i32 noundef 533, ptr noundef nonnull @__func__.pq_copymsgbytes) #9
  unreachable

pq_copymsgbytes.exit:                             ; preds = %1
  %12 = load ptr, ptr %0, align 8
  %13 = sext i32 %5 to i64
  %14 = getelementptr inbounds i8, ptr %12, i64 %13
  %.0.copyload = load i64, ptr %14, align 1
  %15 = add i32 %5, 8
  store i32 %15, ptr %4, align 8
  %16 = tail call i64 @llvm.bswap.i64(i64 %.0.copyload)
  ret i64 %16
}